; Function Attrs: mustprogress nofree norecurse nosync nounwind willreturn memory(argmem: write) uwtable
define internal noundef i32 @zueci_u_utf16le(i32 noundef %0, ptr nocapture noundef writeonly %1) #2 {
  %3 = icmp ult i32 %0, 65536
  br i1 %3, label %4, label %7

4:                                                ; preds = %2
  %5 = lshr i32 %0, 8
  %6 = trunc nuw i32 %5 to i8
  br label %20

7:                                                ; preds = %2
  %8 = add i32 %0, -65536
  %9 = lshr i32 %8, 10
  %10 = lshr i32 %8, 18
  %11 = trunc i32 %10 to i8
  %12 = add i8 %11, -40
  %13 = trunc i32 %0 to i8
  %14 = getelementptr inbounds i8, ptr %1, i64 2
  store i8 %13, ptr %14, align 1
  %15 = lshr i32 %0, 8
  %16 = trunc i32 %15 to i8
  %17 = and i8 %16, 3
  %18 = or disjoint i8 %17, -36
  %19 = getelementptr inbounds i8, ptr %1, i64 3
  store i8 %18, ptr %19, align 1
  br label %20

20:                                               ; preds = %7, %4
  %.sink17.in = phi i32 [ %0, %4 ], [ %9, %7 ]
  %.sink = phi i8 [ %6, %4 ], [ %12, %7 ]
  %.0 = phi i32 [ 2, %4 ], [ 4, %7 ]
  %.sink17 = trunc i32 %.sink17.in to i8
  store i8 %.sink17, ptr %1, align 1
  %21 = getelementptr inbounds i8, ptr %1, i64 1
  store i8 %.sink, ptr %21, align 1
  ret i32 %.0
}